Certificate:
    Data:
        Version: 3 (0x2)
        Serial Number: 0 (0x0)
        Signature Algorithm: ED448
        Issuer: O=Peng Mei Yu, CN=Peng Mei Yu Certification Authority
        Validity
            Not Before: May  1 03:23:16 2021 GMT
            Not After : May  1 03:23:16 2051 GMT
        Subject: O=Peng Mei Yu, CN=Peng Mei Yu Certification Authority
        Subject Public Key Info:
            Public Key Algorithm: ED448
                ED448 Public-Key:
                pub:
                    8e:ad:e8:13:71:1e:ef:c6:da:35:90:86:eb:94:0e:
                    08:d9:00:a3:a7:0f:df:a0:03:ca:e5:18:d8:e8:52:
                    98:d9:45:54:7a:92:57:3e:52:76:92:d5:fc:17:f9:
                    26:ea:4b:44:73:e4:8e:c3:0a:90:ae:00
        X509v3 extensions:
            X509v3 Basic Constraints: critical
                CA:TRUE
            X509v3 Subject Key Identifier: 
                9B:7E:41:9D:04:D0:54:9A:95:36:DB:5F:4A:0B:1E:9A
    Signature Algorithm: ED448
         c3:4c:d6:f2:b4:b2:19:17:f6:7e:d6:a4:59:c5:27:32:82:18:
         2f:a9:e2:99:97:a9:a0:e5:e3:eb:0b:c5:4e:3c:3c:b0:15:5f:
         b3:a7:fe:09:82:0e:09:b2:fd:f0:4c:8c:86:6a:c9:01:ae:00:
         a2:ad:00:9c:f4:7c:f9:7a:40:7e:9d:32:9f:52:c0:6c:b2:16:
         be:f6:f8:01:6c:9f:ef:1f:98:8e:a8:ed:e1:87:59:49:c7:f1:
         02:4b:83:e3:a0:80:43:30:1f:4d:7a:8e:41:72:46:27:54:47:
         72:9a:eb:e6:11:00
-----BEGIN CERTIFICATE-----
MIIBsjCCATKgAwIBAgIBADAFBgMrZXEwRDEUMBIGA1UECgwLUGVuZyBNZWkgWXUx
LDAqBgNVBAMMI1BlbmcgTWVpIFl1IENlcnRpZmljYXRpb24gQXV0aG9yaXR5MCAX
DTIxMDUwMTAzMjMxNloYDzIwNTEwNTAxMDMyMzE2WjBEMRQwEgYDVQQKDAtQZW5n
IE1laSBZdTEsMCoGA1UEAwwjUGVuZyBNZWkgWXUgQ2VydGlmaWNhdGlvbiBBdXRo
b3JpdHkwQzAFBgMrZXEDOgCOregTcR7vxto1kIbrlA4I2QCjpw/foAPK5RjY6FKY
2UVUepJXPlJ2ktX8F/km6ktEc+SOwwqQrgCjLjAsMA8GA1UdEwEB/wQFMAMBAf8w
GQYDVR0OBBIEEJt+QZ0E0FSalTbbX0oLHpowBQYDK2VxA3MAw0zW8rSyGRf2ftak
WcUnMoIYL6nimZepoOXj6wvFTjw8sBVfs6f+CYIOCbL98EyMhmrJAa4Aoq0AnPR8
+XpAfp0yn1LAbLIWvvb4AWyf7x+Yjqjt4YdZScfxAkuD46CAQzAfTXqOQXJGJ1RH
cprr5hEA
-----END CERTIFICATE-----
