Certificate:
    Data:
        Version: 3 (0x2)
        Serial Number:
            36:ed:4d:fd:a3:8a:49:12:ce:de:47:12:41:73:f1:b9:11:31:bb:72
        Signature Algorithm: ED448
        Issuer: O = Peng Mei Yu, CN = Peng Mei Yu Certification Authority
        Validity
            Not Before: Dec  6 09:05:13 2019 GMT
            Not After : Dec  6 09:05:13 2034 GMT
        Subject: O = Peng Mei Yu, CN = Peng Mei Yu Certification Authority
        Subject Public Key Info:
            Public Key Algorithm: ED448
                ED448 Public-Key:
                pub:
                    88:02:2a:6f:1b:e4:0e:7d:32:30:cd:f8:71:4c:20:
                    14:fd:a8:43:b2:ca:d9:6f:64:82:ba:a3:03:85:dc:
                    06:f0:a8:36:35:b3:60:df:54:9b:ce:62:f3:38:ca:
                    ad:41:39:c0:23:f2:26:ea:85:ff:03:80
        X509v3 extensions:
            X509v3 Basic Constraints: critical
                CA:TRUE
            X509v3 Subject Key Identifier:
                12:D0:64:E7:7C:A2:DB:74:43:22:DF:15:10:39:7F:DE:EE:51:16:8A
    Signature Algorithm: ED448
         41:0d:a8:d2:bb:ae:6e:f6:52:d2:c8:e4:e4:ce:6c:6e:60:2b:
         93:e2:84:1f:16:0c:ba:49:b2:7f:67:1b:48:e7:c9:57:de:c3:
         19:ef:25:97:2b:40:71:8c:56:20:b4:1c:ca:65:b6:8a:50:cf:
         5e:05:80:bb:5e:58:31:59:d5:81:db:12:64:20:68:51:97:70:
         0c:d6:41:06:06:8a:a9:e4:87:ed:39:d4:1d:d2:4d:1f:0f:3a:
         3b:b5:2f:dd:d3:42:70:b6:3b:c4:e6:fc:6f:09:34:bc:72:72:
         a3:51:ed:46:2e:00
-----BEGIN CERTIFICATE-----
MIIBxzCCAUegAwIBAgIUNu1N/aOKSRLO3kcSQXPxuRExu3IwBQYDK2VxMEQxFDAS
BgNVBAoMC1BlbmcgTWVpIFl1MSwwKgYDVQQDDCNQZW5nIE1laSBZdSBDZXJ0aWZp
Y2F0aW9uIEF1dGhvcml0eTAeFw0xOTEyMDYwOTA1MTNaFw0zNDEyMDYwOTA1MTNa
MEQxFDASBgNVBAoMC1BlbmcgTWVpIFl1MSwwKgYDVQQDDCNQZW5nIE1laSBZdSBD
ZXJ0aWZpY2F0aW9uIEF1dGhvcml0eTBDMAUGAytlcQM6AIgCKm8b5A59MjDN+HFM
IBT9qEOyytlvZIK6owOF3AbwqDY1s2DfVJvOYvM4yq1BOcAj8ibqhf8DgKMyMDAw
DwYDVR0TAQH/BAUwAwEB/zAdBgNVHQ4EFgQUEtBk53yi23RDIt8VEDl/3u5RFoow
BQYDK2VxA3MAQQ2o0ruubvZS0sjk5M5sbmArk+KEHxYMukmyf2cbSOfJV97DGe8l
lytAcYxWILQcymW2ilDPXgWAu15YMVnVgdsSZCBoUZdwDNZBBgaKqeSH7TnUHdJN
Hw86O7Uv3dNCcLY7xOb8bwk0vHJyo1HtRi4A
-----END CERTIFICATE-----
